Certificate:
    Data:
        Version: 3 (0x2)
        Serial Number: 1048577 (0x100001)
        Signature Algorithm: sha256WithRSAEncryption
        Issuer: C=US, ST=Some-State, O=api6.fity.one Ltd, CN=api6.fity.one/emailAddress=ca@api6.fity.one
        Validity
            Not Before: Sep 18 09:50:14 2021 GMT
            Not After : Sep 16 09:50:14 2031 GMT
        Subject: C=US, ST=State or Providence, O=Company, CN=api6.fity.one/emailAddress=client6@api6.fity.one
        Subject Public Key Info:
            Public Key Algorithm: rsaEncryption
                RSA Public-Key: (2048 bit)
                Modulus:
                    00:c0:87:fb:25:78:4b:ba:f4:42:24:01:2a:eb:3a:
                    98:c0:4c:a4:20:c7:b1:d1:42:bd:85:3e:eb:d9:2e:
                    8d:2b:12:49:69:db:5c:d4:a4:48:21:ad:28:fd:46:
                    32:15:37:d5:5e:62:8e:5d:a6:5f:69:80:68:ff:06:
                    94:f4:da:6e:85:0f:c7:de:ff:9f:46:19:d4:86:73:
                    fe:23:00:4f:8b:05:c0:f5:4a:a6:59:a0:58:b6:83:
                    3a:55:c0:f6:56:ef:d7:b9:57:d9:6e:96:ac:8f:1c:
                    b6:9a:bf:ef:a8:f9:39:b6:0f:86:a2:e4:4a:ce:76:
                    d5:a1:a5:b8:45:5b:fa:5f:1d:0d:b3:ab:99:55:5e:
                    ea:91:b5:3f:d6:57:12:00:dd:32:ca:39:7b:04:56:
                    63:87:84:30:e5:bf:4e:a0:09:f4:9d:41:8c:18:3e:
                    7b:eb:34:9e:2c:b5:ce:f9:e4:67:7e:dd:40:16:fc:
                    9a:fd:37:3f:6b:8e:a1:97:31:c6:8e:00:f8:23:67:
                    44:ed:2f:29:d7:1b:65:d7:43:77:41:7a:7f:ed:2f:
                    8b:8b:46:aa:96:67:41:0b:59:12:0c:d0:7f:9a:6b:
                    45:13:1f:a9:58:6a:46:19:61:25:f5:18:16:42:ad:
                    a4:9c:a9:20:53:2a:a5:66:ed:af:07:09:cf:88:21:
                    c0:8b
                Exponent: 65537 (0x10001)
        X509v3 extensions:
            X509v3 Basic Constraints: 
                CA:FALSE
            X509v3 Subject Key Identifier: 
                70:2E:D6:1A:AC:81:C4:44:12:72:A9:B8:8C:08:91:40:F9:55:F8:37
            X509v3 Authority Key Identifier: 
                keyid:EF:A1:E7:6E:48:13:57:43:F0:95:70:C1:47:18:1F:5E:6D:EB:DC:39

            X509v3 CRL Distribution Points: 

                Full Name:
                  URI:http://www.yourdomain.com/ca/crl.pem

    Signature Algorithm: sha256WithRSAEncryption
         23:ab:9d:ef:6b:0f:03:c9:ef:a3:6f:33:db:a0:ba:33:51:e6:
         1b:11:24:25:5b:67:a7:25:c7:ca:6f:7c:65:c7:1a:d4:38:e8:
         e2:9c:fb:04:97:39:59:96:3b:a8:47:17:37:bc:26:ee:43:54:
         da:de:13:ae:61:83:4b:2a:58:5f:09:23:ba:e3:d7:b7:2d:8b:
         6d:ee:01:e9:18:57:b0:b7:e2:84:e1:85:f1:50:f4:b1:18:72:
         d4:ed:0e:25:0d:fd:16:54:f1:b3:47:56:9e:77:dd:3c:ff:47:
         9e:5c:9a:92:01:a1:c1:8e:e2:6e:0c:a6:de:f1:21:d5:e0:67:
         cf:0d:f3:9b:5f:cb:13:89:34:4a:5f:03:57:66:bf:08:09:70:
         3e:74:a8:91:62:aa:2c:c9:4e:15:5b:d6:c6:02:c0:f5:3b:26:
         a6:ad:70:20:14:98:d5:98:20:93:74:46:dd:e3:5a:22:4d:3e:
         b9:ea:dc:33:54:85:17:06:8b:27:0b:de:3f:19:85:65:c0:68:
         b1:d2:6e:73:99:d5:00:0b:b4:c3:ab:d0:a1:22:32:5c:f2:14:
         1d:17:02:d3:47:1a:80:93:ce:1f:4e:b5:8b:ee:64:eb:12:1d:
         94:a2:d7:59:78:2c:99:0f:8b:2e:46:80:e8:ea:87:8b:cc:cc:
         17:d1:52:15
-----BEGIN CERTIFICATE-----
MIID9TCCAt2gAwIBAgIDEAABMA0GCSqGSIb3DQEBCwUAMHcxCzAJBgNVBAYTAlVT
MRMwEQYDVQQIDApTb21lLVN0YXRlMRowGAYDVQQKDBFhcGk2LmZpdHkub25lIEx0
ZDEWMBQGA1UEAwwNYXBpNi5maXR5Lm9uZTEfMB0GCSqGSIb3DQEJARYQY2FAYXBp
Ni5maXR5Lm9uZTAeFw0yMTA5MTgwOTUwMTRaFw0zMTA5MTYwOTUwMTRaMHsxCzAJ
BgNVBAYTAlVTMRwwGgYDVQQIExNTdGF0ZSBvciBQcm92aWRlbmNlMRAwDgYDVQQK
EwdDb21wYW55MRYwFAYDVQQDEw1hcGk2LmZpdHkub25lMSQwIgYJKoZIhvcNAQkB
FhVjbGllbnQ2QGFwaTYuZml0eS5vbmUwggEiMA0GCSqGSIb3DQEBAQUAA4IBDwAw
ggEKAoIBAQDAh/sleEu69EIkASrrOpjATKQgx7HRQr2FPuvZLo0rEklp21zUpEgh
rSj9RjIVN9VeYo5dpl9pgGj/BpT02m6FD8fe/59GGdSGc/4jAE+LBcD1SqZZoFi2
gzpVwPZW79e5V9lulqyPHLaav++o+Tm2D4ai5ErOdtWhpbhFW/pfHQ2zq5lVXuqR
tT/WVxIA3TLKOXsEVmOHhDDlv06gCfSdQYwYPnvrNJ4stc755Gd+3UAW/Jr9Nz9r
jqGXMcaOAPgjZ0TtLynXG2XXQ3dBen/tL4uLRqqWZ0ELWRIM0H+aa0UTH6lYakYZ
YSX1GBZCraScqSBTKqVm7a8HCc+IIcCLAgMBAAGjgYUwgYIwCQYDVR0TBAIwADAd
BgNVHQ4EFgQUcC7WGqyBxEQScqm4jAiRQPlV+DcwHwYDVR0jBBgwFoAU76HnbkgT
V0PwlXDBRxgfXm3r3DkwNQYDVR0fBC4wLDAqoCigJoYkaHR0cDovL3d3dy55b3Vy
ZG9tYWluLmNvbS9jYS9jcmwucGVtMA0GCSqGSIb3DQEBCwUAA4IBAQAjq53vaw8D
ye+jbzPboLozUeYbESQlW2enJcfKb3xlxxrUOOjinPsElzlZljuoRxc3vCbuQ1Ta
3hOuYYNLKlhfCSO649e3LYtt7gHpGFewt+KE4YXxUPSxGHLU7Q4lDf0WVPGzR1ae
d908/0eeXJqSAaHBjuJuDKbe8SHV4GfPDfObX8sTiTRKXwNXZr8ICXA+dKiRYqos
yU4VW9bGAsD1OyamrXAgFJjVmCCTdEbd41oiTT656twzVIUXBosnC94/GYVlwGix
0m5zmdUAC7TDq9ChIjJc8hQdFwLTRxqAk84fTrWL7mTrEh2UotdZeCyZD4suRoDo
6oeLzMwX0VIV
-----END CERTIFICATE-----
