Certificate:
    Data:
        Version: 3 (0x2)
        Serial Number: 1048577 (0x100001)
        Signature Algorithm: sha256WithRSAEncryption
        Issuer: C=US, ST=Some-State, O=api1.fity.one Ltd, CN=api1.fity.one/emailAddress=ca@api1.fity.one
        Validity
            Not Before: Sep 17 15:34:01 2021 GMT
            Not After : Sep 15 15:34:01 2031 GMT
        Subject: C=US, ST=State or Providence, O=Company, CN=api1.fity.one/emailAddress=client1@api1.fity.one
        Subject Public Key Info:
            Public Key Algorithm: rsaEncryption
                RSA Public-Key: (2048 bit)
                Modulus:
                    00:e2:6d:b8:17:72:ad:ca:8e:2a:f7:6e:46:f7:b0:
                    54:85:29:19:8d:82:0e:98:a6:6c:ad:ce:39:05:33:
                    2d:f3:ed:f5:ae:51:ce:60:76:e8:8c:d1:6d:59:57:
                    a7:39:65:b1:b8:53:52:3c:72:ca:cb:22:32:37:a0:
                    0a:ea:b5:b3:7f:c9:56:5e:08:1f:26:ea:ad:f6:c9:
                    1c:81:f1:99:b6:b3:b7:0e:a7:9a:32:97:91:05:2f:
                    7f:f1:d8:46:aa:b9:0f:43:5e:81:41:8a:6b:58:e8:
                    37:f4:c3:29:31:6c:cf:8e:77:81:b4:5c:f1:d5:f8:
                    b0:4d:55:12:ee:56:9a:8a:5a:27:01:1b:01:ba:7e:
                    55:22:75:28:79:32:62:0a:b4:99:19:01:49:35:12:
                    9b:0d:31:15:25:92:7f:7f:b4:ba:24:e7:a3:9f:3e:
                    98:a2:cf:f7:65:09:5a:ab:d8:a5:66:9c:4b:ef:c5:
                    5e:68:e9:0f:7a:b7:4d:83:f8:e7:ce:0c:49:52:dc:
                    b6:f5:63:12:06:58:c7:42:2f:19:5f:2b:24:3c:34:
                    6c:a6:fd:00:5b:ea:e1:f0:21:e8:ce:0d:66:67:68:
                    69:f4:9f:ff:20:6c:0a:17:2c:1b:3e:db:ce:8a:3a:
                    ca:c0:80:b6:1b:4e:14:ac:84:43:48:65:32:ca:57:
                    3e:87
                Exponent: 65537 (0x10001)
        X509v3 extensions:
            X509v3 Basic Constraints: 
                CA:FALSE
            X509v3 Subject Key Identifier: 
                D3:87:5B:52:FF:18:DD:16:2F:E6:8A:0C:6E:43:78:96:F2:B2:AF:79
            X509v3 Authority Key Identifier: 
                keyid:B3:36:CB:F4:3B:E6:44:2B:7F:2B:DD:48:92:60:0C:3A:E0:8C:80:03

            X509v3 CRL Distribution Points: 

                Full Name:
                  URI:http://www.yourdomain.com/ca/crl.pem

    Signature Algorithm: sha256WithRSAEncryption
         20:fc:a0:59:68:12:50:59:ec:5c:82:99:dd:60:74:42:fc:8f:
         ef:d9:8f:69:87:f8:e6:d4:d3:eb:43:b8:e7:cc:ac:3d:13:21:
         27:21:1c:76:df:70:1d:11:b5:12:34:6c:00:5f:aa:10:66:c7:
         66:2f:ec:ed:51:cf:55:a3:1e:90:f1:08:17:ed:f2:b2:f9:fc:
         d3:76:5f:56:f3:ec:e4:0b:92:60:f7:ed:fb:bf:1a:b8:9e:b0:
         a6:4a:74:a0:c7:67:40:ff:84:2b:8d:93:0d:03:fa:c0:03:37:
         b1:23:fc:8d:54:36:03:74:f5:68:93:05:b6:aa:5c:bf:1a:24:
         90:94:ec:69:9e:f3:7f:96:55:95:5b:62:e6:08:b5:d0:fa:e3:
         70:f7:a3:38:ff:2d:81:b7:71:67:11:3f:8d:93:c7:d0:f7:e6:
         89:23:4f:fe:dd:34:f4:49:f5:fc:3f:de:63:49:11:e2:7b:3d:
         0e:51:60:f5:0a:ae:ca:f3:76:dc:4d:81:01:bb:65:df:87:6e:
         d5:c0:30:ac:62:7f:74:c5:5e:87:52:b9:06:c0:4c:97:98:12:
         5b:0a:fb:fb:29:12:07:f2:3d:b1:e9:96:6f:ee:cd:c8:7d:93:
         00:e2:36:77:83:ae:57:77:a9:f6:25:ce:37:72:b1:ae:eb:b1:
         7a:4c:17:95
-----BEGIN CERTIFICATE-----
MIID9TCCAt2gAwIBAgIDEAABMA0GCSqGSIb3DQEBCwUAMHcxCzAJBgNVBAYTAlVT
MRMwEQYDVQQIDApTb21lLVN0YXRlMRowGAYDVQQKDBFhcGkxLmZpdHkub25lIEx0
ZDEWMBQGA1UEAwwNYXBpMS5maXR5Lm9uZTEfMB0GCSqGSIb3DQEJARYQY2FAYXBp
MS5maXR5Lm9uZTAeFw0yMTA5MTcxNTM0MDFaFw0zMTA5MTUxNTM0MDFaMHsxCzAJ
BgNVBAYTAlVTMRwwGgYDVQQIExNTdGF0ZSBvciBQcm92aWRlbmNlMRAwDgYDVQQK
EwdDb21wYW55MRYwFAYDVQQDEw1hcGkxLmZpdHkub25lMSQwIgYJKoZIhvcNAQkB
FhVjbGllbnQxQGFwaTEuZml0eS5vbmUwggEiMA0GCSqGSIb3DQEBAQUAA4IBDwAw
ggEKAoIBAQDibbgXcq3Kjir3bkb3sFSFKRmNgg6YpmytzjkFMy3z7fWuUc5gduiM
0W1ZV6c5ZbG4U1I8csrLIjI3oArqtbN/yVZeCB8m6q32yRyB8Zm2s7cOp5oyl5EF
L3/x2EaquQ9DXoFBimtY6Df0wykxbM+Od4G0XPHV+LBNVRLuVpqKWicBGwG6flUi
dSh5MmIKtJkZAUk1EpsNMRUlkn9/tLok56OfPpiiz/dlCVqr2KVmnEvvxV5o6Q96
t02D+OfODElS3Lb1YxIGWMdCLxlfKyQ8NGym/QBb6uHwIejODWZnaGn0n/8gbAoX
LBs+286KOsrAgLYbThSshENIZTLKVz6HAgMBAAGjgYUwgYIwCQYDVR0TBAIwADAd
BgNVHQ4EFgQU04dbUv8Y3RYv5ooMbkN4lvKyr3kwHwYDVR0jBBgwFoAUszbL9Dvm
RCt/K91IkmAMOuCMgAMwNQYDVR0fBC4wLDAqoCigJoYkaHR0cDovL3d3dy55b3Vy
ZG9tYWluLmNvbS9jYS9jcmwucGVtMA0GCSqGSIb3DQEBCwUAA4IBAQAg/KBZaBJQ
WexcgpndYHRC/I/v2Y9ph/jm1NPrQ7jnzKw9EyEnIRx233AdEbUSNGwAX6oQZsdm
L+ztUc9Vox6Q8QgX7fKy+fzTdl9W8+zkC5Jg9+37vxq4nrCmSnSgx2dA/4QrjZMN
A/rAAzexI/yNVDYDdPVokwW2qly/GiSQlOxpnvN/llWVW2LmCLXQ+uNw96M4/y2B
t3FnET+Nk8fQ9+aJI0/+3TT0SfX8P95jSRHiez0OUWD1Cq7K83bcTYEBu2Xfh27V
wDCsYn90xV6HUrkGwEyXmBJbCvv7KRIH8j2x6ZZv7s3IfZMA4jZ3g65Xd6n2Jc43
crGu67F6TBeV
-----END CERTIFICATE-----
