Certificate:
    Data:
        Version: 3 (0x2)
        Serial Number: 1048577 (0x100001)
        Signature Algorithm: sha256WithRSAEncryption
        Issuer: C=US, ST=Some-State, O=api2.fity.one Ltd, CN=api2.fity.one/emailAddress=ca@api2.fity.one
        Validity
            Not Before: Sep 18 09:33:41 2021 GMT
            Not After : Sep 16 09:33:41 2031 GMT
        Subject: C=US, ST=State or Providence, O=Company, CN=api2.fity.one/emailAddress=client2@api2.fity.one
        Subject Public Key Info:
            Public Key Algorithm: rsaEncryption
                RSA Public-Key: (2048 bit)
                Modulus:
                    00:ce:f6:01:f4:3f:28:6a:0a:f6:6e:2a:c6:13:b4:
                    6b:a5:b0:85:6f:64:c3:1d:1f:18:76:07:06:24:60:
                    a6:f9:0a:4c:ae:5b:e5:19:4d:bb:11:76:ec:3a:b5:
                    21:d4:9f:7a:c3:9f:7c:86:cc:50:9b:89:e4:c9:7d:
                    ee:e4:7e:58:6e:cf:e3:03:be:33:db:5b:67:6e:fa:
                    55:17:0d:66:21:06:27:5d:e8:d4:99:16:0c:07:e6:
                    35:fe:f7:20:d4:68:84:4b:39:f5:32:23:06:72:25:
                    77:16:6a:d9:ae:7d:40:28:d6:5d:60:8d:2c:74:9a:
                    69:c0:0a:88:ba:74:ec:0f:ad:67:69:80:f7:5f:f8:
                    8e:a4:2e:7c:ff:cd:57:b6:4c:e6:a1:0f:4c:5a:02:
                    30:9b:fc:ae:dd:fc:39:d8:45:3a:a3:48:1f:5a:01:
                    50:96:35:c4:c2:6e:ee:3f:85:aa:cf:5e:7e:1d:ab:
                    54:cc:c5:b4:c1:34:f7:6e:64:d3:d4:3f:65:1d:75:
                    d5:54:0c:b0:34:66:a5:85:4d:cd:43:2a:90:f7:22:
                    ec:93:fd:22:0c:73:4b:99:e0:c1:b2:d9:83:e1:4f:
                    62:f1:54:85:a1:ef:0d:3a:e0:df:4c:2f:52:00:3c:
                    dc:01:cb:ab:25:b3:0c:0e:d3:a3:c0:7e:cd:77:b5:
                    84:bb
                Exponent: 65537 (0x10001)
        X509v3 extensions:
            X509v3 Basic Constraints: 
                CA:FALSE
            X509v3 Subject Key Identifier: 
                25:E2:03:06:37:08:33:00:4E:B3:1E:28:A4:34:5F:29:63:EB:18:80
            X509v3 Authority Key Identifier: 
                keyid:A1:F2:41:42:D4:DB:DD:CB:48:70:58:2F:F3:B5:4E:38:94:82:01:62

            X509v3 CRL Distribution Points: 

                Full Name:
                  URI:http://www.yourdomain.com/ca/crl.pem

    Signature Algorithm: sha256WithRSAEncryption
         1c:75:e2:22:3a:57:ca:e4:17:d4:34:56:7b:66:fd:04:36:e1:
         fb:bf:e0:8f:d5:4d:81:ef:d6:d1:4e:0f:f7:ee:11:fa:13:f0:
         da:3e:ad:01:30:46:06:15:0d:5c:ea:70:4e:06:57:a3:a7:97:
         34:1b:de:ee:6f:d0:18:06:ac:68:8a:d3:a1:55:35:84:2b:0d:
         1d:7b:9e:2a:96:7e:0a:18:45:39:3b:5c:24:2c:ae:ce:a4:06:
         e0:9b:e0:35:23:ce:ee:ef:ad:13:81:e0:36:12:7b:05:ef:e0:
         48:3a:44:7c:c5:30:d1:1c:cb:21:e9:32:cd:09:2d:4c:91:aa:
         6d:47:1d:11:f6:75:8d:96:15:f8:28:15:ac:ef:d4:7a:da:d9:
         5a:08:1d:05:84:33:ac:3b:47:da:d4:20:cc:27:42:b4:07:0f:
         ef:64:32:5f:f2:3e:a6:2e:6d:a2:a2:96:e4:85:98:ed:17:99:
         13:05:85:d8:2b:00:bf:a8:0c:51:a1:98:ce:b6:1c:4c:95:bf:
         8d:31:79:0a:16:c1:e9:47:9e:9b:55:7f:a0:58:dc:3b:4e:40:
         a2:8a:e0:96:64:c7:7f:f3:0b:df:b2:ea:e1:59:98:dd:1e:7f:
         e8:f0:cb:a7:af:ef:a8:ee:60:88:ae:61:86:1a:a0:36:42:db:
         58:39:a7:b6
-----BEGIN CERTIFICATE-----
MIID9TCCAt2gAwIBAgIDEAABMA0GCSqGSIb3DQEBCwUAMHcxCzAJBgNVBAYTAlVT
MRMwEQYDVQQIDApTb21lLVN0YXRlMRowGAYDVQQKDBFhcGkyLmZpdHkub25lIEx0
ZDEWMBQGA1UEAwwNYXBpMi5maXR5Lm9uZTEfMB0GCSqGSIb3DQEJARYQY2FAYXBp
Mi5maXR5Lm9uZTAeFw0yMTA5MTgwOTMzNDFaFw0zMTA5MTYwOTMzNDFaMHsxCzAJ
BgNVBAYTAlVTMRwwGgYDVQQIExNTdGF0ZSBvciBQcm92aWRlbmNlMRAwDgYDVQQK
EwdDb21wYW55MRYwFAYDVQQDEw1hcGkyLmZpdHkub25lMSQwIgYJKoZIhvcNAQkB
FhVjbGllbnQyQGFwaTIuZml0eS5vbmUwggEiMA0GCSqGSIb3DQEBAQUAA4IBDwAw
ggEKAoIBAQDO9gH0PyhqCvZuKsYTtGulsIVvZMMdHxh2BwYkYKb5CkyuW+UZTbsR
duw6tSHUn3rDn3yGzFCbieTJfe7kflhuz+MDvjPbW2du+lUXDWYhBidd6NSZFgwH
5jX+9yDUaIRLOfUyIwZyJXcWatmufUAo1l1gjSx0mmnACoi6dOwPrWdpgPdf+I6k
Lnz/zVe2TOahD0xaAjCb/K7d/DnYRTqjSB9aAVCWNcTCbu4/harPXn4dq1TMxbTB
NPduZNPUP2UdddVUDLA0ZqWFTc1DKpD3IuyT/SIMc0uZ4MGy2YPhT2LxVIWh7w06
4N9ML1IAPNwBy6slswwO06PAfs13tYS7AgMBAAGjgYUwgYIwCQYDVR0TBAIwADAd
BgNVHQ4EFgQUJeIDBjcIMwBOsx4opDRfKWPrGIAwHwYDVR0jBBgwFoAUofJBQtTb
3ctIcFgv87VOOJSCAWIwNQYDVR0fBC4wLDAqoCigJoYkaHR0cDovL3d3dy55b3Vy
ZG9tYWluLmNvbS9jYS9jcmwucGVtMA0GCSqGSIb3DQEBCwUAA4IBAQAcdeIiOlfK
5BfUNFZ7Zv0ENuH7v+CP1U2B79bRTg/37hH6E/DaPq0BMEYGFQ1c6nBOBlejp5c0
G97ub9AYBqxoitOhVTWEKw0de54qln4KGEU5O1wkLK7OpAbgm+A1I87u760TgeA2
EnsF7+BIOkR8xTDRHMsh6TLNCS1MkaptRx0R9nWNlhX4KBWs79R62tlaCB0FhDOs
O0fa1CDMJ0K0Bw/vZDJf8j6mLm2iopbkhZjtF5kTBYXYKwC/qAxRoZjOthxMlb+N
MXkKFsHpR56bVX+gWNw7TkCiiuCWZMd/8wvfsurhWZjdHn/o8Munr++o7mCIrmGG
GqA2QttYOae2
-----END CERTIFICATE-----
