Certificate:
    Data:
        Version: 3 (0x2)
        Serial Number: 1048577 (0x100001)
        Signature Algorithm: sha256WithRSAEncryption
        Issuer: C=US, ST=Some-State, O=api3.fity.one Ltd, CN=api3.fity.one/emailAddress=ca@api3.fity.one
        Validity
            Not Before: Sep 18 09:35:32 2021 GMT
            Not After : Sep 16 09:35:32 2031 GMT
        Subject: C=US, ST=State or Providence, O=Company, CN=api3.fity.one/emailAddress=client3@api3.fity.one
        Subject Public Key Info:
            Public Key Algorithm: rsaEncryption
                RSA Public-Key: (2048 bit)
                Modulus:
                    00:b2:42:0e:42:fb:0f:87:e0:81:65:53:ae:b4:11:
                    5a:d2:1f:d2:c3:8a:9c:8a:63:3f:7c:f6:81:22:71:
                    28:e0:62:31:fb:8b:bf:54:2b:1d:0d:ba:98:37:01:
                    7e:42:6c:83:be:9d:cc:95:16:5a:d3:44:cf:32:fd:
                    58:61:64:79:43:f9:72:4d:2c:ca:e4:dd:1f:6d:61:
                    d4:f5:0b:09:b1:81:57:0d:55:f9:38:76:ff:0b:4c:
                    7c:55:4f:ee:1c:1d:05:bb:8f:16:7a:70:de:c9:5d:
                    d3:a1:ee:84:36:56:be:08:4c:6c:a4:6f:69:b9:ee:
                    3e:69:cd:2b:09:e0:2a:46:9b:8d:83:8c:95:c1:92:
                    62:62:be:32:d8:0c:4e:cc:6b:f9:4d:b6:99:85:d1:
                    eb:9c:d3:e5:be:02:82:bd:d4:ee:9d:fe:78:fe:a2:
                    40:4e:b8:99:90:13:21:a8:79:cc:ff:a7:f3:12:d1:
                    7a:a2:df:2d:e9:51:c8:71:c2:f0:cd:77:a9:4a:68:
                    31:52:95:64:ab:f5:64:13:3d:bb:bf:b0:37:df:12:
                    e9:18:56:4c:a7:6f:59:78:da:aa:b9:5d:ed:f4:12:
                    02:00:4f:15:6c:7e:30:41:ed:95:60:6d:be:00:c1:
                    e2:e1:d5:01:94:f7:7e:09:6b:07:c0:94:e3:e1:fc:
                    ee:79
                Exponent: 65537 (0x10001)
        X509v3 extensions:
            X509v3 Basic Constraints: 
                CA:FALSE
            X509v3 Subject Key Identifier: 
                05:1D:36:0D:F7:B6:38:70:0C:4F:A2:97:6F:4D:F9:55:9E:21:31:A7
            X509v3 Authority Key Identifier: 
                keyid:4D:5A:41:7C:7B:F2:1C:1A:0D:13:C3:D8:83:87:AA:F8:50:EB:8E:F7

            X509v3 CRL Distribution Points: 

                Full Name:
                  URI:http://www.yourdomain.com/ca/crl.pem

    Signature Algorithm: sha256WithRSAEncryption
         92:9b:ba:0d:95:9a:05:2a:ab:6c:eb:c0:5b:98:0c:d3:63:16:
         17:56:3f:e5:90:78:7b:8f:a2:89:fb:a4:5e:4d:58:52:a2:81:
         4b:c6:1f:6b:6c:6e:d2:c6:3e:0f:fb:44:99:32:b4:25:fa:ba:
         5e:9e:82:ad:50:6f:0e:df:e6:88:e6:5e:fc:b2:b5:a1:36:fd:
         12:23:45:69:20:6f:a7:72:06:da:fd:af:05:ab:dc:ac:1c:9f:
         f2:51:1c:a7:b8:5c:d6:38:2b:59:63:d7:04:85:e8:df:9c:c2:
         03:d2:2d:01:1a:78:5c:47:05:0d:79:22:58:63:7b:18:8b:1c:
         fd:33:13:ed:dc:13:fd:3e:86:94:53:a4:01:d1:9c:ed:48:53:
         e6:92:44:1e:39:b5:13:2b:4a:cd:4d:86:2a:28:ee:9b:1f:be:
         35:b7:ad:98:e2:21:d2:9f:ee:76:34:39:b2:5a:a1:cc:c9:aa:
         7d:8f:c8:7b:7a:3b:57:ca:7f:fe:f8:57:10:b6:29:5f:8c:10:
         7a:c3:92:39:7e:1c:70:80:ba:39:5c:10:b8:d5:5d:a5:34:78:
         ce:59:7d:8e:30:4c:64:10:20:59:21:9f:62:af:3f:fb:47:cf:
         e5:94:39:9f:76:b2:89:52:f7:c9:26:7c:b3:a1:c2:03:a5:5c:
         ff:d7:8d:74
-----BEGIN CERTIFICATE-----
MIID9TCCAt2gAwIBAgIDEAABMA0GCSqGSIb3DQEBCwUAMHcxCzAJBgNVBAYTAlVT
MRMwEQYDVQQIDApTb21lLVN0YXRlMRowGAYDVQQKDBFhcGkzLmZpdHkub25lIEx0
ZDEWMBQGA1UEAwwNYXBpMy5maXR5Lm9uZTEfMB0GCSqGSIb3DQEJARYQY2FAYXBp
My5maXR5Lm9uZTAeFw0yMTA5MTgwOTM1MzJaFw0zMTA5MTYwOTM1MzJaMHsxCzAJ
BgNVBAYTAlVTMRwwGgYDVQQIExNTdGF0ZSBvciBQcm92aWRlbmNlMRAwDgYDVQQK
EwdDb21wYW55MRYwFAYDVQQDEw1hcGkzLmZpdHkub25lMSQwIgYJKoZIhvcNAQkB
FhVjbGllbnQzQGFwaTMuZml0eS5vbmUwggEiMA0GCSqGSIb3DQEBAQUAA4IBDwAw
ggEKAoIBAQCyQg5C+w+H4IFlU660EVrSH9LDipyKYz989oEicSjgYjH7i79UKx0N
upg3AX5CbIO+ncyVFlrTRM8y/VhhZHlD+XJNLMrk3R9tYdT1CwmxgVcNVfk4dv8L
THxVT+4cHQW7jxZ6cN7JXdOh7oQ2Vr4ITGykb2m57j5pzSsJ4CpGm42DjJXBkmJi
vjLYDE7Ma/lNtpmF0euc0+W+AoK91O6d/nj+okBOuJmQEyGoecz/p/MS0Xqi3y3p
UchxwvDNd6lKaDFSlWSr9WQTPbu/sDffEukYVkynb1l42qq5Xe30EgIATxVsfjBB
7ZVgbb4AweLh1QGU934JawfAlOPh/O55AgMBAAGjgYUwgYIwCQYDVR0TBAIwADAd
BgNVHQ4EFgQUBR02Dfe2OHAMT6KXb035VZ4hMacwHwYDVR0jBBgwFoAUTVpBfHvy
HBoNE8PYg4eq+FDrjvcwNQYDVR0fBC4wLDAqoCigJoYkaHR0cDovL3d3dy55b3Vy
ZG9tYWluLmNvbS9jYS9jcmwucGVtMA0GCSqGSIb3DQEBCwUAA4IBAQCSm7oNlZoF
Kqts68BbmAzTYxYXVj/lkHh7j6KJ+6ReTVhSooFLxh9rbG7Sxj4P+0SZMrQl+rpe
noKtUG8O3+aI5l78srWhNv0SI0VpIG+ncgba/a8Fq9ysHJ/yURynuFzWOCtZY9cE
hejfnMID0i0BGnhcRwUNeSJYY3sYixz9MxPt3BP9PoaUU6QB0ZztSFPmkkQeObUT
K0rNTYYqKO6bH741t62Y4iHSn+52NDmyWqHMyap9j8h7ejtXyn/++FcQtilfjBB6
w5I5fhxwgLo5XBC41V2lNHjOWX2OMExkECBZIZ9irz/7R8/llDmfdrKJUvfJJnyz
ocIDpVz/1410
-----END CERTIFICATE-----
